; Function Attrs: nounwind uwtable
define i32 @avio_feof(ptr noundef %0) local_unnamed_addr #3 {
  %.not = icmp eq ptr %0, null
  br i1 %.not, label %6, label %2

2:                                                ; preds = %1
  %3 = getelementptr inbounds nuw i8, ptr %0, i64 80
  %4 = load i32, ptr %3, align 8, !tbaa !46
  %.not6 = icmp eq i32 %4, 0
  br i1 %.not6, label %6, label %5

5:                                                ; preds = %2
  store i32 0, ptr %3, align 8, !tbaa !46
  tail call fastcc void @fill_buffer(ptr noundef nonnull %0)
  %.pre = load i32, ptr %3, align 8, !tbaa !46
  br label %6

6:                                                ; preds = %2, %5, %1
  %.0 = phi i32 [ 0, %1 ], [ %.pre, %5 ], [ 0, %2 ]
  ret i32 %.0
}